; Function Attrs: nounwind uwtable
define hidden noalias noundef ptr @_PyTokenizer_error_ret(ptr noundef captures(none) initializes((8, 24), (48, 68), (2748, 2752)) %0) local_unnamed_addr #0 {
  %2 = getelementptr inbounds nuw i8, ptr %0, i64 2748
  store i32 1, ptr %2, align 4, !tbaa !27
  %3 = getelementptr inbounds nuw i8, ptr %0, i64 72
  %4 = load ptr, ptr %3, align 8, !tbaa !28
  %.not = icmp eq ptr %4, null
  br i1 %.not, label %5, label %8

5:                                                ; preds = %1
  %6 = getelementptr inbounds nuw i8, ptr %0, i64 2800
  %7 = load ptr, ptr %6, align 8, !tbaa !29
  %.not11 = icmp eq ptr %7, null
  br i1 %.not11, label %11, label %8

8:                                                ; preds = %5, %1
  %9 = load ptr, ptr %0, align 8, !tbaa !30
  %.not12 = icmp eq ptr %9, null
  br i1 %.not12, label %11, label %10

10:                                               ; preds = %8
  tail call void @PyMem_Free(ptr noundef nonnull %9) #9
  br label %11

11:                                               ; preds = %10, %8, %5
  %12 = getelementptr inbounds nuw i8, ptr %0, i64 48
  %13 = getelementptr inbounds nuw i8, ptr %0, i64 64
  tail call void @llvm.memset.p0.i64(ptr noundef nonnull align 8 dereferenceable(24) %0, i8 0, i64 24, i1 false)
  tail call void @llvm.memset.p0.i64(ptr noundef nonnull align 8 dereferenceable(16) %12, i8 0, i64 16, i1 false)
  store i32 22, ptr %13, align 8, !tbaa !4
  ret ptr null
}